; Function Attrs: nounwind uwtable
define noalias noundef ptr @Saig_ManCbaReason2Inputs(ptr noundef readonly captures(none) %0, ptr noundef readonly captures(none) %1) local_unnamed_addr #0 {
  %3 = load ptr, ptr %0, align 8, !tbaa !64
  %4 = getelementptr i8, ptr %3, i64 108
  %.val21 = load i32, ptr %4, align 4, !tbaa !32
  %5 = tail call noalias dereferenceable_or_null(16) ptr @malloc(i64 noundef 16) #18
  %6 = add i32 %.val21, -1
  %or.cond.i = icmp ult i32 %6, 15
  %spec.store.select.i = select i1 %or.cond.i, i32 16, i32 %.val21
  %7 = getelementptr inbounds nuw i8, ptr %5, i64 4
  store i32 0, ptr %7, align 4, !tbaa !3
  store i32 %spec.store.select.i, ptr %5, align 8, !tbaa !10
  %.not.i = icmp eq i32 %spec.store.select.i, 0
  br i1 %.not.i, label %Vec_IntAlloc.exit.thread.i, label %Vec_IntAlloc.exit.i

Vec_IntAlloc.exit.thread.i:                       ; preds = %2
  %8 = getelementptr inbounds nuw i8, ptr %5, i64 8
  store ptr null, ptr %8, align 8, !tbaa !11
  %9 = tail call noalias dereferenceable_or_null(16) ptr @malloc(i64 noundef 16) #18
  %10 = getelementptr inbounds nuw i8, ptr %9, i64 4
  store i32 0, ptr %9, align 8, !tbaa !10
  %11 = getelementptr inbounds nuw i8, ptr %9, i64 8
  store ptr null, ptr %11, align 8, !tbaa !11
  store i32 %.val21, ptr %10, align 4, !tbaa !3
  br label %Vec_IntStart.exit

Vec_IntAlloc.exit.i:                              ; preds = %2
  %12 = sext i32 %spec.store.select.i to i64
  %13 = shl nsw i64 %12, 2
  %14 = tail call noalias ptr @malloc(i64 noundef %13) #18
  %15 = getelementptr inbounds nuw i8, ptr %5, i64 8
  store ptr %14, ptr %15, align 8, !tbaa !11
  %16 = tail call noalias dereferenceable_or_null(16) ptr @malloc(i64 noundef 16) #18
  %17 = getelementptr inbounds nuw i8, ptr %16, i64 4
  store i32 %spec.store.select.i, ptr %16, align 8, !tbaa !10
  %18 = tail call noalias ptr @malloc(i64 noundef %13) #18
  %19 = getelementptr inbounds nuw i8, ptr %16, i64 8
  store ptr %18, ptr %19, align 8, !tbaa !11
  store i32 %.val21, ptr %17, align 4, !tbaa !3
  %.not.i23 = icmp eq ptr %18, null
  br i1 %.not.i23, label %Vec_IntStart.exit, label %20

20:                                               ; preds = %Vec_IntAlloc.exit.i
  %21 = sext i32 %.val21 to i64
  %22 = shl nsw i64 %21, 2
  tail call void @llvm.memset.p0.i64(ptr nonnull align 4 %18, i8 0, i64 %22, i1 false)
  br label %Vec_IntStart.exit

Vec_IntStart.exit:                                ; preds = %Vec_IntAlloc.exit.thread.i, %Vec_IntAlloc.exit.i, %20
  %23 = phi ptr [ null, %Vec_IntAlloc.exit.thread.i ], [ null, %Vec_IntAlloc.exit.i ], [ %18, %20 ]
  %.pre.i31 = phi ptr [ null, %Vec_IntAlloc.exit.thread.i ], [ %14, %Vec_IntAlloc.exit.i ], [ %14, %20 ]
  %24 = phi ptr [ %9, %Vec_IntAlloc.exit.thread.i ], [ %16, %Vec_IntAlloc.exit.i ], [ %16, %20 ]
  %25 = phi ptr [ %8, %Vec_IntAlloc.exit.thread.i ], [ %15, %Vec_IntAlloc.exit.i ], [ %15, %20 ]
  %26 = getelementptr i8, ptr %1, i64 4
  %.val25 = load i32, ptr %26, align 4, !tbaa !3
  %27 = icmp sgt i32 %.val25, 0
  br i1 %27, label %.lr.ph, label %.critedge

.lr.ph:                                           ; preds = %Vec_IntStart.exit
  %28 = getelementptr i8, ptr %1, i64 8
  %29 = getelementptr inbounds nuw i8, ptr %0, i64 32
  %30 = getelementptr i8, ptr %24, i64 8
  %31 = getelementptr inbounds nuw i8, ptr %0, i64 16
  br label %32

32:                                               ; preds = %.lr.ph, %70
  %33 = phi ptr [ %.pre.i31, %.lr.ph ], [ %.pre.i29, %70 ]
  %indvars.iv = phi i64 [ 0, %.lr.ph ], [ %indvars.iv.next, %70 ]
  %.val19 = load ptr, ptr %28, align 8, !tbaa !11
  %34 = getelementptr inbounds nuw i32, ptr %.val19, i64 %indvars.iv
  %35 = load i32, ptr %34, align 4, !tbaa !12
  %36 = load ptr, ptr %29, align 8, !tbaa !66
  %37 = shl nsw i32 %35, 1
  %38 = getelementptr i8, ptr %36, i64 8
  %.val18 = load ptr, ptr %38, align 8, !tbaa !11
  %39 = sext i32 %37 to i64
  %40 = getelementptr inbounds i32, ptr %.val18, i64 %39
  %41 = load i32, ptr %40, align 4, !tbaa !12
  %.val17 = load ptr, ptr %30, align 8, !tbaa !11
  %42 = sext i32 %41 to i64
  %43 = getelementptr inbounds i32, ptr %.val17, i64 %42
  %44 = load i32, ptr %43, align 4, !tbaa !12
  %45 = icmp eq i32 %44, 0
  br i1 %45, label %46, label %70

46:                                               ; preds = %32
  %47 = load i32, ptr %31, align 8, !tbaa !67
  %48 = sub nsw i32 %41, %47
  %49 = load i32, ptr %7, align 4, !tbaa !3
  %50 = load i32, ptr %5, align 8, !tbaa !10
  %51 = icmp eq i32 %49, %50
  br i1 %51, label %52, label %Vec_IntPush.exit

52:                                               ; preds = %46
  %53 = icmp slt i32 %49, 16
  br i1 %53, label %54, label %59

54:                                               ; preds = %52
  %.not9.i.i = icmp eq ptr %33, null
  br i1 %.not9.i.i, label %57, label %55

55:                                               ; preds = %54
  %56 = tail call dereferenceable_or_null(64) ptr @realloc(ptr noundef nonnull %33, i64 noundef 64) #19
  br label %Vec_IntPush.exit.sink.split

57:                                               ; preds = %54
  %58 = tail call noalias dereferenceable_or_null(64) ptr @malloc(i64 noundef 64) #18
  br label %Vec_IntPush.exit.sink.split

59:                                               ; preds = %52
  %60 = shl nuw nsw i32 %49, 1
  %.not9.i9.i = icmp eq ptr %33, null
  %61 = zext nneg i32 %60 to i64
  %62 = shl nuw nsw i64 %61, 2
  br i1 %.not9.i9.i, label %65, label %63

63:                                               ; preds = %59
  %64 = tail call ptr @realloc(ptr noundef nonnull %33, i64 noundef %62) #19
  br label %Vec_IntPush.exit.sink.split

65:                                               ; preds = %59
  %66 = tail call noalias ptr @malloc(i64 noundef %62) #18
  br label %Vec_IntPush.exit.sink.split

Vec_IntPush.exit.sink.split:                      ; preds = %63, %65, %55, %57
  %.sink33 = phi ptr [ %56, %55 ], [ %58, %57 ], [ %64, %63 ], [ %66, %65 ]
  %.sink = phi i32 [ 16, %55 ], [ 16, %57 ], [ %60, %63 ], [ %60, %65 ]
  store ptr %.sink33, ptr %25, align 8, !tbaa !11
  store i32 %.sink, ptr %5, align 8, !tbaa !10
  br label %Vec_IntPush.exit

Vec_IntPush.exit:                                 ; preds = %Vec_IntPush.exit.sink.split, %46
  %.pre.i30 = phi ptr [ %33, %46 ], [ %.sink33, %Vec_IntPush.exit.sink.split ]
  %67 = add nsw i32 %49, 1
  store i32 %67, ptr %7, align 4, !tbaa !3
  %68 = sext i32 %49 to i64
  %69 = getelementptr inbounds i32, ptr %.pre.i30, i64 %68
  store i32 %48, ptr %69, align 4, !tbaa !12
  %.pre = load i32, ptr %43, align 4, !tbaa !12
  br label %70

70:                                               ; preds = %Vec_IntPush.exit, %32
  %71 = phi i32 [ %.pre, %Vec_IntPush.exit ], [ %44, %32 ]
  %.pre.i29 = phi ptr [ %.pre.i30, %Vec_IntPush.exit ], [ %33, %32 ]
  %72 = add nsw i32 %71, 1
  store i32 %72, ptr %43, align 4, !tbaa !12
  %indvars.iv.next = add nuw nsw i64 %indvars.iv, 1
  %.val = load i32, ptr %26, align 4, !tbaa !3
  %73 = sext i32 %.val to i64
  %74 = icmp slt i64 %indvars.iv.next, %73
  br i1 %74, label %32, label %.critedge.loopexit, !llvm.loop !68

.critedge.loopexit:                               ; preds = %70
  %.pre32 = load ptr, ptr %30, align 8, !tbaa !11
  br label %.critedge

.critedge:                                        ; preds = %.critedge.loopexit, %Vec_IntStart.exit
  %75 = phi ptr [ %.pre32, %.critedge.loopexit ], [ %23, %Vec_IntStart.exit ]
  %.not.i24 = icmp eq ptr %75, null
  br i1 %.not.i24, label %Vec_IntFree.exit, label %76

76:                                               ; preds = %.critedge
  tail call void @free(ptr noundef nonnull %75) #20
  br label %Vec_IntFree.exit

Vec_IntFree.exit:                                 ; preds = %.critedge, %76
  tail call void @free(ptr noundef nonnull %24) #20
  ret ptr %5
}